target datalayout = "e-m:e-p270:32:32-p271:32:32-p272:64:64-i64:64-i128:128-f80:128-n8:16:32:64-S128"
target triple = "x86_64-unknown-linux-gnu"

%"class.std::__cxx11::basic_string" = type { %"struct.std::__cxx11::basic_string<char>::_Alloc_hider", i64, %union.anon }
%"struct.std::__cxx11::basic_string<char>::_Alloc_hider" = type { ptr }
%union.anon = type { i64, [8 x i8] }
%"class.std::basic_string_view" = type { i64, ptr }
%"struct.node::SnapshotConfig" = type { i32, [4 x i8], %"class.std::optional" }
%"class.std::optional" = type { %"struct.std::_Optional_base" }
%"struct.std::_Optional_base" = type { %"struct.std::_Optional_payload" }
%"struct.std::_Optional_payload" = type { %"struct.std::_Optional_payload.base", [7 x i8] }
%"struct.std::_Optional_payload.base" = type { %"struct.std::_Optional_payload_base.base" }
%"struct.std::_Optional_payload_base.base" = type <{ %"union.std::_Optional_payload_base<std::__cxx11::basic_string<char>>::_Storage", i8 }>
%"union.std::_Optional_payload_base<std::__cxx11::basic_string<char>>::_Storage" = type { %"class.std::__cxx11::basic_string" }
%"class.std::optional.85" = type { %"struct.std::_Optional_base.86" }
%"struct.std::_Optional_base.86" = type { %"struct.std::_Optional_payload.88" }
%"struct.std::_Optional_payload.88" = type { %"struct.std::_Optional_payload_base.base.90", [7 x i8] }
%"struct.std::_Optional_payload_base.base.90" = type <{ %"union.std::_Optional_payload_base<std::basic_string_view<char>>::_Storage", i8 }>
%"union.std::_Optional_payload_base<std::basic_string_view<char>>::_Storage" = type { %"class.std::basic_string_view" }

; Function Attrs: mustprogress nounwind uwtable
define dso_local noundef i32 @_ZN4nodeanENS_13SnapshotFlagsES0_(i32 noundef %x, i32 noundef %y) #4 {
entry:
  %x.addr = alloca i32, align 4
  %y.addr = alloca i32, align 4
  store i32 %x, ptr %x.addr, align 4
  store i32 %y, ptr %y.addr, align 4
  %0 = load i32, ptr %x.addr, align 4
  %1 = load i32, ptr %y.addr, align 4
  %and = and i32 %0, %1
  ret i32 %and
}

; Function Attrs: mustprogress nounwind uwtable
define dso_local noundef zeroext i1 @_ZN4node16WithoutCodeCacheERKNS_13SnapshotFlagsE(ptr noundef nonnull align 4 dereferenceable(4) %flags) #4 {
entry:
  %flags.addr = alloca ptr, align 8
  store ptr %flags, ptr %flags.addr, align 8
  %0 = load ptr, ptr %flags.addr, align 8
  %1 = load i32, ptr %0, align 4
  %call = call noundef i32 @_ZN4nodeanENS_13SnapshotFlagsES0_(i32 noundef %1, i32 noundef 1)
  %tobool = icmp ne i32 %call, 0
  ret i1 %tobool
}

; Function Attrs: mustprogress nounwind uwtable
define dso_local noundef zeroext i1 @_ZN4node16WithoutCodeCacheERKNS_14SnapshotConfigE(ptr noundef nonnull align 8 dereferenceable(48) %config) #4 {
entry:
  %config.addr = alloca ptr, align 8
  store ptr %config, ptr %config.addr, align 8
  %0 = load ptr, ptr %config.addr, align 8
  %flags = getelementptr inbounds %"struct.node::SnapshotConfig", ptr %0, i32 0, i32 0
  %call = call noundef zeroext i1 @_ZN4node16WithoutCodeCacheERKNS_13SnapshotFlagsE(ptr noundef nonnull align 4 dereferenceable(4) %flags)
  ret i1 %call
}

; Function Attrs: mustprogress nounwind uwtable
define dso_local noundef i32 @_ZN4node15SnapshotBuilder8GenerateEPNS_12SnapshotDataERKSt6vectorINSt7__cxx1112basic_stringIcSt11char_traitsIcESaIcEEESaIS9_EESD_St8optionalISt17basic_string_viewIcS7_EERKNS_14SnapshotConfigE(ptr noundef %out, ptr noundef nonnull align 8 dereferenceable(24) %args, ptr noundef nonnull align 8 dereferenceable(24) %exec_args, ptr noundef byval(%"class.std::optional.85") align 8 %builder_script_content, ptr noundef nonnull align 8 dereferenceable(48) %snapshot_config) #4 align 2 {
entry:
  %retval = alloca i32, align 4
  %out.addr = alloca ptr, align 8
  %args.addr = alloca ptr, align 8
  %exec_args.addr = alloca ptr, align 8
  %snapshot_config.addr = alloca ptr, align 8
  %code = alloca i32, align 4
  %agg.tmp = alloca %"class.std::optional.85", align 8
  store ptr %out, ptr %out.addr, align 8
  store ptr %args, ptr %args.addr, align 8
  store ptr %exec_args, ptr %exec_args.addr, align 8
  store ptr %snapshot_config, ptr %snapshot_config.addr, align 8
  %0 = load ptr, ptr %out.addr, align 8
  %1 = load ptr, ptr %args.addr, align 8
  %2 = load ptr, ptr %exec_args.addr, align 8
  call void @llvm.memcpy.p0.p0.i64(ptr align 8 %agg.tmp, ptr align 8 %builder_script_content, i64 24, i1 false)
  %3 = load ptr, ptr %snapshot_config.addr, align 8
  %call = call noundef i32 @_ZN4node29BuildSnapshotWithoutCodeCacheEPNS_12SnapshotDataERKSt6vectorINSt7__cxx1112basic_stringIcSt11char_traitsIcESaIcEEESaIS8_EESC_St8optionalISt17basic_string_viewIcS6_EERKNS_14SnapshotConfigE(ptr noundef %0, ptr noundef nonnull align 8 dereferenceable(24) %1, ptr noundef nonnull align 8 dereferenceable(24) %2, ptr noundef byval(%"class.std::optional.85") align 8 %agg.tmp, ptr noundef nonnull align 8 dereferenceable(48) %3)
  store i32 %call, ptr %code, align 4
  %4 = load i32, ptr %code, align 4
  %cmp = icmp ne i32 %4, 0
  br i1 %cmp, label %if.then, label %if.end

if.then:                                          ; preds = %entry
  %5 = load i32, ptr %code, align 4
  store i32 %5, ptr %retval, align 4
  br label %return

if.end:                                           ; preds = %entry
  %6 = load ptr, ptr %snapshot_config.addr, align 8
  %call1 = call noundef zeroext i1 @_ZN4node16WithoutCodeCacheERKNS_14SnapshotConfigE(ptr noundef nonnull align 8 dereferenceable(48) %6)
  br i1 %call1, label %if.end4, label %if.then2

if.then2:                                         ; preds = %if.end
  %7 = load ptr, ptr %out.addr, align 8
  %8 = load ptr, ptr %args.addr, align 8
  %9 = load ptr, ptr %exec_args.addr, align 8
  %call3 = call noundef i32 @_ZN4node26BuildCodeCacheFromSnapshotEPNS_12SnapshotDataERKSt6vectorINSt7__cxx1112basic_stringIcSt11char_traitsIcESaIcEEESaIS8_EESC_(ptr noundef %7, ptr noundef nonnull align 8 dereferenceable(24) %8, ptr noundef nonnull align 8 dereferenceable(24) %9)
  store i32 %call3, ptr %retval, align 4
  br label %return

if.end4:                                          ; preds = %if.end
  store i32 0, ptr %retval, align 4
  br label %return

return:                                           ; preds = %if.end4, %if.then2, %if.then
  %10 = load i32, ptr %retval, align 4
  ret i32 %10
}