; Function Attrs: mustprogress nounwind uwtable
define dso_local noundef i32 @_ZN4node15SnapshotBuilder8GenerateEPNS_12SnapshotDataERKSt6vectorINSt7__cxx1112basic_stringIcSt11char_traitsIcESaIcEEESaIS9_EESD_St8optionalISt17basic_string_viewIcS7_EERKNS_14SnapshotConfigE(ptr noundef %out, ptr noundef nonnull align 8 dereferenceable(24) %args, ptr noundef nonnull align 8 dereferenceable(24) %exec_args, ptr nocapture noundef readonly byval(%"class.std::optional.85") align 8 %builder_script_content, ptr noundef nonnull align 8 dereferenceable(48) %snapshot_config) local_unnamed_addr #3 align 2 {
entry:
  %call = tail call noundef i32 @_ZN4node29BuildSnapshotWithoutCodeCacheEPNS_12SnapshotDataERKSt6vectorINSt7__cxx1112basic_stringIcSt11char_traitsIcESaIcEEESaIS8_EESC_St8optionalISt17basic_string_viewIcS6_EERKNS_14SnapshotConfigE(ptr noundef %out, ptr noundef nonnull align 8 dereferenceable(24) %args, ptr noundef nonnull align 8 dereferenceable(24) %exec_args, ptr noundef nonnull byval(%"class.std::optional.85") align 8 %builder_script_content, ptr noundef nonnull align 8 dereferenceable(48) %snapshot_config)
  %cmp.not = icmp eq i32 %call, 0
  br i1 %cmp.not, label %if.end, label %return

if.end:                                           ; preds = %entry
  %0 = load i32, ptr %snapshot_config, align 8
  %and.i.i.i = and i32 %0, 1
  %tobool.i.i.not = icmp eq i32 %and.i.i.i, 0
  br i1 %tobool.i.i.not, label %if.then2, label %return

if.then2:                                         ; preds = %if.end
  %call3 = tail call noundef i32 @_ZN4node26BuildCodeCacheFromSnapshotEPNS_12SnapshotDataERKSt6vectorINSt7__cxx1112basic_stringIcSt11char_traitsIcESaIcEEESaIS8_EESC_(ptr noundef %out, ptr nonnull align 8 poison, ptr nonnull align 8 poison), !range !264
  br label %return

return:                                           ; preds = %if.end, %entry, %if.then2
  %retval.0 = phi i32 [ %call3, %if.then2 ], [ %call, %entry ], [ 0, %if.end ]
  ret i32 %retval.0
}